target datalayout = "e-m:e-p270:32:32-p271:32:32-p272:64:64-i64:64-i128:128-f80:128-n8:16:32:64-S128"
target triple = "x86_64-pc-linux-gnu"

%struct.cs_symbolic = type { ptr, ptr, ptr, ptr, ptr, i32, double, double }

; Function Attrs: nounwind uwtable
define ptr @cs_sfree(ptr noundef %0) #0 {
  %2 = alloca ptr, align 8
  %3 = alloca ptr, align 8
  store ptr %0, ptr %3, align 8, !tbaa !27
  %4 = load ptr, ptr %3, align 8, !tbaa !27
  %5 = icmp ne ptr %4, null
  br i1 %5, label %7, label %6

6:                                                ; preds = %1
  store ptr null, ptr %2, align 8
  br label %30

7:                                                ; preds = %1
  %8 = load ptr, ptr %3, align 8, !tbaa !27
  %9 = getelementptr inbounds nuw %struct.cs_symbolic, ptr %8, i32 0, i32 0
  %10 = load ptr, ptr %9, align 8, !tbaa !29
  %11 = call ptr @cs_free(ptr noundef %10)
  %12 = load ptr, ptr %3, align 8, !tbaa !27
  %13 = getelementptr inbounds nuw %struct.cs_symbolic, ptr %12, i32 0, i32 1
  %14 = load ptr, ptr %13, align 8, !tbaa !32
  %15 = call ptr @cs_free(ptr noundef %14)
  %16 = load ptr, ptr %3, align 8, !tbaa !27
  %17 = getelementptr inbounds nuw %struct.cs_symbolic, ptr %16, i32 0, i32 2
  %18 = load ptr, ptr %17, align 8, !tbaa !33
  %19 = call ptr @cs_free(ptr noundef %18)
  %20 = load ptr, ptr %3, align 8, !tbaa !27
  %21 = getelementptr inbounds nuw %struct.cs_symbolic, ptr %20, i32 0, i32 3
  %22 = load ptr, ptr %21, align 8, !tbaa !34
  %23 = call ptr @cs_free(ptr noundef %22)
  %24 = load ptr, ptr %3, align 8, !tbaa !27
  %25 = getelementptr inbounds nuw %struct.cs_symbolic, ptr %24, i32 0, i32 4
  %26 = load ptr, ptr %25, align 8, !tbaa !35
  %27 = call ptr @cs_free(ptr noundef %26)
  %28 = load ptr, ptr %3, align 8, !tbaa !27
  %29 = call ptr @cs_free(ptr noundef %28)
  store ptr %29, ptr %2, align 8
  br label %30

30:                                               ; preds = %7, %6
  %31 = load ptr, ptr %2, align 8
  ret ptr %31
}