; Function Attrs: nounwind uwtable
define ptr @cs_sfree(ptr noundef %0) local_unnamed_addr #0 {
  %.not = icmp eq ptr %0, null
  br i1 %.not, label %18, label %2

2:                                                ; preds = %1
  %3 = load ptr, ptr %0, align 8, !tbaa !24
  %4 = tail call ptr @cs_free(ptr noundef %3) #4
  %5 = getelementptr inbounds nuw i8, ptr %0, i64 8
  %6 = load ptr, ptr %5, align 8, !tbaa !27
  %7 = tail call ptr @cs_free(ptr noundef %6) #4
  %8 = getelementptr inbounds nuw i8, ptr %0, i64 16
  %9 = load ptr, ptr %8, align 8, !tbaa !28
  %10 = tail call ptr @cs_free(ptr noundef %9) #4
  %11 = getelementptr inbounds nuw i8, ptr %0, i64 24
  %12 = load ptr, ptr %11, align 8, !tbaa !29
  %13 = tail call ptr @cs_free(ptr noundef %12) #4
  %14 = getelementptr inbounds nuw i8, ptr %0, i64 32
  %15 = load ptr, ptr %14, align 8, !tbaa !30
  %16 = tail call ptr @cs_free(ptr noundef %15) #4
  %17 = tail call ptr @cs_free(ptr noundef nonnull %0) #4
  br label %18

18:                                               ; preds = %1, %2
  %.0 = phi ptr [ %17, %2 ], [ null, %1 ]
  ret ptr %.0
}